target datalayout = "e-m:e-p270:32:32-p271:32:32-p272:64:64-i64:64-i128:128-f80:128-n8:16:32:64-S128"
target triple = "x86_64-pc-linux-gnu"

%struct.LoadState = type { ptr, ptr, ptr, ptr, i64, i64, i8 }

@.str.13 = private unnamed_addr constant [27 x i8] c"%s: bad binary format (%s)\00", align 1

; Function Attrs: noreturn nounwind uwtable
define internal void @error(ptr noundef %0, ptr noundef %1) #3 {
  %3 = alloca ptr, align 8
  %4 = alloca ptr, align 8
  store ptr %0, ptr %3, align 8, !tbaa !47
  store ptr %1, ptr %4, align 8, !tbaa !11
  %5 = load ptr, ptr %3, align 8, !tbaa !47
  %6 = getelementptr inbounds nuw %struct.LoadState, ptr %5, i32 0, i32 0
  %7 = load ptr, ptr %6, align 8, !tbaa !21
  %8 = load ptr, ptr %3, align 8, !tbaa !47
  %9 = getelementptr inbounds nuw %struct.LoadState, ptr %8, i32 0, i32 2
  %10 = load ptr, ptr %9, align 8, !tbaa !16
  %11 = load ptr, ptr %4, align 8, !tbaa !11
  %12 = call ptr (ptr, ptr, ...) @luaO_pushfstring(ptr noundef %7, ptr noundef @.str.13, ptr noundef %10, ptr noundef %11)
  %13 = load ptr, ptr %3, align 8, !tbaa !47
  %14 = getelementptr inbounds nuw %struct.LoadState, ptr %13, i32 0, i32 0
  %15 = load ptr, ptr %14, align 8, !tbaa !21
  call void @luaD_throw(ptr noundef %15, i32 noundef 3) #7
  unreachable
}