; Function Attrs: noreturn nounwind uwtable
define internal fastcc void @error(ptr noundef nonnull readonly captures(none) %0, ptr noundef %1) unnamed_addr #3 {
  %3 = load ptr, ptr %0, align 8, !tbaa !16
  %4 = getelementptr inbounds nuw i8, ptr %0, i64 16
  %5 = load ptr, ptr %4, align 8, !tbaa !7
  %6 = tail call ptr (ptr, ptr, ...) @luaO_pushfstring(ptr noundef %3, ptr noundef nonnull @.str.13, ptr noundef %5, ptr noundef %1) #8
  %7 = load ptr, ptr %0, align 8, !tbaa !16
  tail call void @luaD_throw(ptr noundef %7, i32 noundef 3) #10
  unreachable
}